target datalayout = "e-m:e-p270:32:32-p271:32:32-p272:64:64-i64:64-i128:128-f80:128-n8:16:32:64-S128"
target triple = "x86_64-pc-linux-gnu"

%"class.Eigen::Matrix" = type { %"class.Eigen::PlainObjectBase" }
%"class.Eigen::PlainObjectBase" = type { %"class.Eigen::DenseStorage" }
%"class.Eigen::DenseStorage" = type { %"struct.Eigen::internal::plain_array" }
%"struct.Eigen::internal::plain_array" = type { [16 x float] }
%class.EditSelectPlugin = type <{ %class.QObject, %class.EditTool, %"class.vcg::Point2", %"class.vcg::Point2", %"class.vcg::Point2", i8, [3 x i8], i32, %"class.std::vector.16", %"class.std::vector.21", %"class.std::vector.26", i32, i32, [16 x double], [16 x double], [4 x i32], %"class.Eigen::Matrix", [4 x float], i32, i8, [11 x i8] }>
%class.QObject = type { ptr, %class.QScopedPointer }
%class.QScopedPointer = type { ptr }
%class.EditTool = type { %class.MeshLabPluginLogger }
%class.MeshLabPluginLogger = type { ptr, ptr }
%"class.vcg::Point2" = type { [2 x float] }
%"class.std::vector.16" = type { %"struct.std::_Vector_base.17" }
%"struct.std::_Vector_base.17" = type { %"struct.std::_Vector_base<CFaceO *, std::allocator<CFaceO *>>::_Vector_impl" }
%"struct.std::_Vector_base<CFaceO *, std::allocator<CFaceO *>>::_Vector_impl" = type { %"struct.std::_Vector_base<CFaceO *, std::allocator<CFaceO *>>::_Vector_impl_data" }
%"struct.std::_Vector_base<CFaceO *, std::allocator<CFaceO *>>::_Vector_impl_data" = type { ptr, ptr, ptr }
%"class.std::vector.21" = type { %"struct.std::_Vector_base.22" }
%"struct.std::_Vector_base.22" = type { %"struct.std::_Vector_base<CVertexO *, std::allocator<CVertexO *>>::_Vector_impl" }
%"struct.std::_Vector_base<CVertexO *, std::allocator<CVertexO *>>::_Vector_impl" = type { %"struct.std::_Vector_base<CVertexO *, std::allocator<CVertexO *>>::_Vector_impl_data" }
%"struct.std::_Vector_base<CVertexO *, std::allocator<CVertexO *>>::_Vector_impl_data" = type { ptr, ptr, ptr }
%"class.std::vector.26" = type { %"struct.std::_Vector_base.27" }
%"struct.std::_Vector_base.27" = type { %"struct.std::_Vector_base<vcg::Point2<float>, std::allocator<vcg::Point2<float>>>::_Vector_impl" }
%"struct.std::_Vector_base<vcg::Point2<float>, std::allocator<vcg::Point2<float>>>::_Vector_impl" = type { %"struct.std::_Vector_base<vcg::Point2<float>, std::allocator<vcg::Point2<float>>>::_Vector_impl_data" }
%"struct.std::_Vector_base<vcg::Point2<float>, std::allocator<vcg::Point2<float>>>::_Vector_impl_data" = type { ptr, ptr, ptr }
%class.QPaintDevice = type { ptr, i16, ptr }
%class.QWidget = type { %class.QObject, %class.QPaintDevice, ptr }
%class.QFont = type <{ %class.QExplicitlySharedDataPointer, i32, [4 x i8] }>
%class.QExplicitlySharedDataPointer = type { ptr }
%class.QWidgetData = type { i64, i32, %class.QFlags.317, i32, %class.QRect, [4 x i8], %class.QPalette, %class.QFont, %class.QRect }
%class.QFlags.317 = type { i32 }
%class.QPalette = type <{ ptr, %union.anon.318, [4 x i8] }>
%union.anon.318 = type { %"struct.QPalette::Data" }
%"struct.QPalette::Data" = type { i32 }
%class.QRect = type { i32, i32, i32, i32 }

; Function Attrs: mustprogress nounwind uwtable
define linkonce_odr noundef i32 @_ZNK5QRect6heightEv(ptr noundef nonnull align 4 dereferenceable(16) %0) #4 comdat align 2 {
  %2 = alloca ptr, align 8
  store ptr %0, ptr %2, align 8
  %3 = load ptr, ptr %2, align 8
  %4 = getelementptr inbounds %class.QRect, ptr %3, i32 0, i32 3
  %5 = load i32, ptr %4, align 4
  %6 = getelementptr inbounds %class.QRect, ptr %3, i32 0, i32 1
  %7 = load i32, ptr %6, align 4
  %8 = sub nsw i32 %5, %7
  %9 = add nsw i32 %8, 1
  ret i32 %9
}

; Function Attrs: mustprogress nounwind uwtable
define linkonce_odr noundef i32 @_ZNK5QRect5widthEv(ptr noundef nonnull align 4 dereferenceable(16) %0) #4 comdat align 2 {
  %2 = alloca ptr, align 8
  store ptr %0, ptr %2, align 8
  %3 = load ptr, ptr %2, align 8
  %4 = getelementptr inbounds %class.QRect, ptr %3, i32 0, i32 2
  %5 = load i32, ptr %4, align 4
  %6 = getelementptr inbounds %class.QRect, ptr %3, i32 0, i32 0
  %7 = load i32, ptr %6, align 4
  %8 = sub nsw i32 %5, %7
  %9 = add nsw i32 %8, 1
  ret i32 %9
}

; Function Attrs: mustprogress nounwind uwtable
define linkonce_odr noundef ptr @_ZNK3vcg6Point2IfE1VEv(ptr noundef nonnull align 4 dereferenceable(8) %0) #4 comdat align 2 {
  %2 = alloca ptr, align 8
  store ptr %0, ptr %2, align 8
  %3 = load ptr, ptr %2, align 8
  %4 = getelementptr inbounds %"class.vcg::Point2", ptr %3, i32 0, i32 0
  %5 = getelementptr inbounds [2 x float], ptr %4, i64 0, i64 0
  ret ptr %5
}

; Function Attrs: mustprogress uwtable
define linkonce_odr noundef i32 @_ZNK12QPaintDevice16devicePixelRatioEv(ptr noundef nonnull align 8 dereferenceable(24) %0) #5 comdat align 2 {
  %2 = alloca ptr, align 8
  store ptr %0, ptr %2, align 8
  %3 = load ptr, ptr %2, align 8
  %4 = load ptr, ptr %3, align 8
  %5 = getelementptr inbounds ptr, ptr %4, i64 4
  %6 = load ptr, ptr %5, align 8
  %7 = call noundef i32 %6(ptr noundef nonnull align 8 dereferenceable(24) %3, i32 noundef 11)
  ret i32 %7
}

; Function Attrs: mustprogress nounwind uwtable
define linkonce_odr noundef i32 @_ZNK7QWidget6heightEv(ptr noundef nonnull align 8 dereferenceable(48) %0) #4 comdat align 2 {
  %2 = alloca ptr, align 8
  store ptr %0, ptr %2, align 8
  %3 = load ptr, ptr %2, align 8
  %4 = getelementptr inbounds %class.QWidget, ptr %3, i32 0, i32 2
  %5 = load ptr, ptr %4, align 8
  %6 = getelementptr inbounds %class.QWidgetData, ptr %5, i32 0, i32 4
  %7 = call noundef i32 @_ZNK5QRect6heightEv(ptr noundef nonnull align 4 dereferenceable(16) %6) #3
  ret i32 %7
}

; Function Attrs: mustprogress nounwind uwtable
define linkonce_odr noundef i32 @_ZNK7QWidget5widthEv(ptr noundef nonnull align 8 dereferenceable(48) %0) #4 comdat align 2 {
  %2 = alloca ptr, align 8
  store ptr %0, ptr %2, align 8
  %3 = load ptr, ptr %2, align 8
  %4 = getelementptr inbounds %class.QWidget, ptr %3, i32 0, i32 2
  %5 = load ptr, ptr %4, align 8
  %6 = getelementptr inbounds %class.QWidgetData, ptr %5, i32 0, i32 4
  %7 = call noundef i32 @_ZNK5QRect5widthEv(ptr noundef nonnull align 4 dereferenceable(16) %6) #3
  ret i32 %7
}

; Function Attrs: mustprogress uwtable
define linkonce_odr void @_ZN3vcg8glVertexERKNS_6Point2IfEE(ptr noundef nonnull align 4 dereferenceable(8) %0) #5 comdat {
  %2 = alloca ptr, align 8
  store ptr %0, ptr %2, align 8
  %3 = load ptr, ptr %2, align 8
  %4 = call noundef ptr @_ZNK3vcg6Point2IfE1VEv(ptr noundef nonnull align 4 dereferenceable(8) %3)
  call void @glVertex2fv(ptr noundef %4)
  ret void
}

; Function Attrs: mustprogress nounwind uwtable
define linkonce_odr noundef nonnull align 4 dereferenceable(8) ptr @_ZNSt6vectorIN3vcg6Point2IfEESaIS2_EEixEm(ptr noundef nonnull align 8 dereferenceable(24) %0, i64 noundef %1) #4 comdat align 2 {
  %3 = alloca ptr, align 8
  %4 = alloca i64, align 8
  store ptr %0, ptr %3, align 8
  store i64 %1, ptr %4, align 8
  %5 = load ptr, ptr %3, align 8
  %6 = getelementptr inbounds %"struct.std::_Vector_base.27", ptr %5, i32 0, i32 0
  %7 = getelementptr inbounds %"struct.std::_Vector_base<vcg::Point2<float>, std::allocator<vcg::Point2<float>>>::_Vector_impl_data", ptr %6, i32 0, i32 0
  %8 = load ptr, ptr %7, align 8
  %9 = load i64, ptr %4, align 8
  %10 = getelementptr inbounds %"class.vcg::Point2", ptr %8, i64 %9
  ret ptr %10
}

; Function Attrs: mustprogress uwtable
define linkonce_odr noundef i32 @_Z17QTLogicalToDeviceIiET_P7QWidgetRKS0_(ptr noundef %0, ptr noundef nonnull align 4 dereferenceable(4) %1) #5 comdat {
  %3 = alloca ptr, align 8
  %4 = alloca ptr, align 8
  store ptr %0, ptr %3, align 8
  store ptr %1, ptr %4, align 8
  %5 = load ptr, ptr %4, align 8
  %6 = load i32, ptr %5, align 4
  %7 = load ptr, ptr %3, align 8
  %8 = getelementptr inbounds i8, ptr %7, i64 16
  %9 = call noundef i32 @_ZNK12QPaintDevice16devicePixelRatioEv(ptr noundef nonnull align 8 dereferenceable(24) %8)
  %10 = mul nsw i32 %6, %9
  ret i32 %10
}

; Function Attrs: mustprogress uwtable
define linkonce_odr noundef i32 @_Z14QTDeviceHeightP7QWidget(ptr noundef %0) #5 comdat {
  %2 = alloca ptr, align 8
  %3 = alloca i32, align 4
  store ptr %0, ptr %2, align 8
  %4 = load ptr, ptr %2, align 8
  %5 = load ptr, ptr %2, align 8
  %6 = call noundef i32 @_ZNK7QWidget6heightEv(ptr noundef nonnull align 8 dereferenceable(48) %5)
  store i32 %6, ptr %3, align 4
  %7 = call noundef i32 @_Z17QTLogicalToDeviceIiET_P7QWidgetRKS0_(ptr noundef %4, ptr noundef nonnull align 4 dereferenceable(4) %3)
  ret i32 %7
}

; Function Attrs: mustprogress uwtable
define linkonce_odr noundef i32 @_Z13QTDeviceWidthP7QWidget(ptr noundef %0) #5 comdat {
  %2 = alloca ptr, align 8
  %3 = alloca i32, align 4
  store ptr %0, ptr %2, align 8
  %4 = load ptr, ptr %2, align 8
  %5 = load ptr, ptr %2, align 8
  %6 = call noundef i32 @_ZNK7QWidget5widthEv(ptr noundef nonnull align 8 dereferenceable(48) %5)
  store i32 %6, ptr %3, align 4
  %7 = call noundef i32 @_Z17QTLogicalToDeviceIiET_P7QWidgetRKS0_(ptr noundef %4, ptr noundef nonnull align 4 dereferenceable(4) %3)
  ret i32 %7
}

; Function Attrs: mustprogress nounwind uwtable
define linkonce_odr noundef i64 @_ZNKSt6vectorIN3vcg6Point2IfEESaIS2_EE4sizeEv(ptr noundef nonnull align 8 dereferenceable(24) %0) #4 comdat align 2 {
  %2 = alloca ptr, align 8
  store ptr %0, ptr %2, align 8
  %3 = load ptr, ptr %2, align 8
  %4 = getelementptr inbounds %"struct.std::_Vector_base.27", ptr %3, i32 0, i32 0
  %5 = getelementptr inbounds %"struct.std::_Vector_base<vcg::Point2<float>, std::allocator<vcg::Point2<float>>>::_Vector_impl_data", ptr %4, i32 0, i32 1
  %6 = load ptr, ptr %5, align 8
  %7 = getelementptr inbounds %"struct.std::_Vector_base.27", ptr %3, i32 0, i32 0
  %8 = getelementptr inbounds %"struct.std::_Vector_base<vcg::Point2<float>, std::allocator<vcg::Point2<float>>>::_Vector_impl_data", ptr %7, i32 0, i32 0
  %9 = load ptr, ptr %8, align 8
  %10 = ptrtoint ptr %6 to i64
  %11 = ptrtoint ptr %9 to i64
  %12 = sub i64 %10, %11
  %13 = sdiv exact i64 %12, 8
  ret i64 %13
}

; Function Attrs: mustprogress uwtable
define void @_ZN16EditSelectPlugin15DrawXORPolyLineEP6GLArea(ptr noundef nonnull align 16 dereferenceable(501) %0, ptr noundef %1) #5 align 2 {
  %3 = alloca ptr, align 8
  %4 = alloca ptr, align 8
  %5 = alloca i32, align 4
  %6 = alloca i64, align 8
  store ptr %0, ptr %3, align 8
  store ptr %1, ptr %4, align 8
  %7 = load ptr, ptr %3, align 8
  %8 = getelementptr inbounds %class.EditSelectPlugin, ptr %7, i32 0, i32 10
  %9 = call noundef i64 @_ZNKSt6vectorIN3vcg6Point2IfEESaIS2_EE4sizeEv(ptr noundef nonnull align 8 dereferenceable(24) %8) #3
  %10 = icmp eq i64 %9, 0
  br i1 %10, label %11, label %12

11:                                               ; preds = %2
  br label %53

12:                                               ; preds = %2
  call void @glMatrixMode(i32 noundef 5889)
  call void @glPushMatrix()
  call void @glLoadIdentity()
  %13 = load ptr, ptr %4, align 8
  %14 = call noundef i32 @_Z13QTDeviceWidthP7QWidget(ptr noundef %13)
  %15 = sitofp i32 %14 to double
  %16 = load ptr, ptr %4, align 8
  %17 = call noundef i32 @_Z14QTDeviceHeightP7QWidget(ptr noundef %16)
  %18 = sitofp i32 %17 to double
  call void @glOrtho(double noundef 0.000000e+00, double noundef %15, double noundef 0.000000e+00, double noundef %18, double noundef -1.000000e+00, double noundef 1.000000e+00)
  call void @glMatrixMode(i32 noundef 5888)
  call void @glPushMatrix()
  call void @glLoadIdentity()
  call void @glPushAttrib(i32 noundef 8192)
  call void @glDisable(i32 noundef 2929)
  call void @glDisable(i32 noundef 2896)
  call void @glDisable(i32 noundef 3553)
  call void @glEnable(i32 noundef 3058)
  call void @glLogicOp(i32 noundef 5382)
  call void @glColor3f(float noundef 1.000000e+00, float noundef 1.000000e+00, float noundef 1.000000e+00)
  call void @glLineStipple(i32 noundef 1, i16 noundef zeroext -21846)
  call void @glEnable(i32 noundef 2852)
  %19 = load ptr, ptr %4, align 8
  store i32 1, ptr %5, align 4
  %20 = call noundef i32 @_Z17QTLogicalToDeviceIiET_P7QWidgetRKS0_(ptr noundef %19, ptr noundef nonnull align 4 dereferenceable(4) %5)
  %21 = sitofp i32 %20 to float
  call void @glLineWidth(float noundef %21)
  %22 = getelementptr inbounds %class.EditSelectPlugin, ptr %7, i32 0, i32 10
  %23 = call noundef i64 @_ZNKSt6vectorIN3vcg6Point2IfEESaIS2_EE4sizeEv(ptr noundef nonnull align 8 dereferenceable(24) %22) #3
  %24 = icmp eq i64 %23, 1
  br i1 %24, label %25, label %28

25:                                               ; preds = %12
  call void @glBegin(i32 noundef 0)
  %26 = getelementptr inbounds %class.EditSelectPlugin, ptr %7, i32 0, i32 10
  %27 = call noundef nonnull align 4 dereferenceable(8) ptr @_ZNSt6vectorIN3vcg6Point2IfEESaIS2_EEixEm(ptr noundef nonnull align 8 dereferenceable(24) %26, i64 noundef 0) #3
  call void @_ZN3vcg8glVertexERKNS_6Point2IfEE(ptr noundef nonnull align 4 dereferenceable(8) %27)
  br label %52

28:                                               ; preds = %12
  %29 = getelementptr inbounds %class.EditSelectPlugin, ptr %7, i32 0, i32 10
  %30 = call noundef i64 @_ZNKSt6vectorIN3vcg6Point2IfEESaIS2_EE4sizeEv(ptr noundef nonnull align 8 dereferenceable(24) %29) #3
  %31 = icmp eq i64 %30, 2
  br i1 %31, label %32, label %37

32:                                               ; preds = %28
  call void @glBegin(i32 noundef 1)
  %33 = getelementptr inbounds %class.EditSelectPlugin, ptr %7, i32 0, i32 10
  %34 = call noundef nonnull align 4 dereferenceable(8) ptr @_ZNSt6vectorIN3vcg6Point2IfEESaIS2_EEixEm(ptr noundef nonnull align 8 dereferenceable(24) %33, i64 noundef 0) #3
  call void @_ZN3vcg8glVertexERKNS_6Point2IfEE(ptr noundef nonnull align 4 dereferenceable(8) %34)
  %35 = getelementptr inbounds %class.EditSelectPlugin, ptr %7, i32 0, i32 10
  %36 = call noundef nonnull align 4 dereferenceable(8) ptr @_ZNSt6vectorIN3vcg6Point2IfEESaIS2_EEixEm(ptr noundef nonnull align 8 dereferenceable(24) %35, i64 noundef 1) #3
  call void @_ZN3vcg8glVertexERKNS_6Point2IfEE(ptr noundef nonnull align 4 dereferenceable(8) %36)
  br label %51

37:                                               ; preds = %28
  call void @glBegin(i32 noundef 2)
  store i64 0, ptr %6, align 8
  br label %38

38:                                               ; preds = %47, %37
  %39 = load i64, ptr %6, align 8
  %40 = getelementptr inbounds %class.EditSelectPlugin, ptr %7, i32 0, i32 10
  %41 = call noundef i64 @_ZNKSt6vectorIN3vcg6Point2IfEESaIS2_EE4sizeEv(ptr noundef nonnull align 8 dereferenceable(24) %40) #3
  %42 = icmp ult i64 %39, %41
  br i1 %42, label %43, label %50

43:                                               ; preds = %38
  %44 = getelementptr inbounds %class.EditSelectPlugin, ptr %7, i32 0, i32 10
  %45 = load i64, ptr %6, align 8
  %46 = call noundef nonnull align 4 dereferenceable(8) ptr @_ZNSt6vectorIN3vcg6Point2IfEESaIS2_EEixEm(ptr noundef nonnull align 8 dereferenceable(24) %44, i64 noundef %45) #3
  call void @_ZN3vcg8glVertexERKNS_6Point2IfEE(ptr noundef nonnull align 4 dereferenceable(8) %46)
  br label %47

47:                                               ; preds = %43
  %48 = load i64, ptr %6, align 8
  %49 = add i64 %48, 1
  store i64 %49, ptr %6, align 8
  br label %38, !llvm.loop !34

50:                                               ; preds = %38
  br label %51

51:                                               ; preds = %50, %32
  br label %52

52:                                               ; preds = %51, %25
  call void @glEnd()
  call void @glDisable(i32 noundef 3057)
  call void @glPopAttrib()
  call void @glPopMatrix()
  call void @glMatrixMode(i32 noundef 5889)
  call void @glPopMatrix()
  call void @glMatrixMode(i32 noundef 5888)
  br label %53

53:                                               ; preds = %52, %11
  ret void
}