; Function Attrs: mustprogress uwtable
define void @_ZN16EditSelectPlugin15DrawXORPolyLineEP6GLArea(ptr nocapture noundef nonnull readonly align 16 dereferenceable(501) %0, ptr noundef %1) local_unnamed_addr #9 align 2 {
  %3 = getelementptr inbounds i8, ptr %0, i64 112
  %4 = getelementptr inbounds i8, ptr %0, i64 120
  %5 = load ptr, ptr %4, align 8
  %6 = load ptr, ptr %3, align 16
  %7 = icmp eq ptr %5, %6
  br i1 %7, label %67, label %8

8:                                                ; preds = %2
  tail call void @glMatrixMode(i32 noundef 5889)
  tail call void @glPushMatrix()
  tail call void @glLoadIdentity()
  %9 = getelementptr inbounds i8, ptr %1, i64 40
  %10 = load ptr, ptr %9, align 8
  %11 = getelementptr inbounds i8, ptr %10, i64 20
  %12 = getelementptr inbounds i8, ptr %10, i64 28
  %13 = load i32, ptr %12, align 4
  %14 = load i32, ptr %11, align 4
  %15 = add i32 %13, 1
  %16 = sub i32 %15, %14
  %17 = getelementptr inbounds i8, ptr %1, i64 16
  %18 = load ptr, ptr %17, align 8
  %19 = getelementptr inbounds i8, ptr %18, i64 32
  %20 = load ptr, ptr %19, align 8
  %21 = tail call noundef i32 %20(ptr noundef nonnull align 8 dereferenceable(24) %17, i32 noundef 11)
  %22 = mul nsw i32 %21, %16
  %23 = sitofp i32 %22 to double
  %24 = load ptr, ptr %9, align 8
  %25 = getelementptr inbounds i8, ptr %24, i64 32
  %26 = load i32, ptr %25, align 4
  %27 = getelementptr inbounds i8, ptr %24, i64 24
  %28 = load i32, ptr %27, align 4
  %29 = add i32 %26, 1
  %30 = sub i32 %29, %28
  %31 = load ptr, ptr %17, align 8
  %32 = getelementptr inbounds i8, ptr %31, i64 32
  %33 = load ptr, ptr %32, align 8
  %34 = tail call noundef i32 %33(ptr noundef nonnull align 8 dereferenceable(24) %17, i32 noundef 11)
  %35 = mul nsw i32 %34, %30
  %36 = sitofp i32 %35 to double
  tail call void @glOrtho(double noundef 0.000000e+00, double noundef %23, double noundef 0.000000e+00, double noundef %36, double noundef -1.000000e+00, double noundef 1.000000e+00)
  tail call void @glMatrixMode(i32 noundef 5888)
  tail call void @glPushMatrix()
  tail call void @glLoadIdentity()
  tail call void @glPushAttrib(i32 noundef 8192)
  tail call void @glDisable(i32 noundef 2929)
  tail call void @glDisable(i32 noundef 2896)
  tail call void @glDisable(i32 noundef 3553)
  tail call void @glEnable(i32 noundef 3058)
  tail call void @glLogicOp(i32 noundef 5382)
  tail call void @glColor3f(float noundef 1.000000e+00, float noundef 1.000000e+00, float noundef 1.000000e+00)
  tail call void @glLineStipple(i32 noundef 1, i16 noundef zeroext -21846)
  tail call void @glEnable(i32 noundef 2852)
  %37 = load ptr, ptr %17, align 8
  %38 = getelementptr inbounds i8, ptr %37, i64 32
  %39 = load ptr, ptr %38, align 8
  %40 = tail call noundef i32 %39(ptr noundef nonnull align 8 dereferenceable(24) %17, i32 noundef 11)
  %41 = sitofp i32 %40 to float
  tail call void @glLineWidth(float noundef %41)
  %42 = load ptr, ptr %4, align 8
  %43 = load ptr, ptr %3, align 16
  %44 = ptrtoint ptr %42 to i64
  %45 = ptrtoint ptr %43 to i64
  %46 = sub i64 %44, %45
  %47 = ashr exact i64 %46, 3
  switch i64 %47, label %54 [
    i64 1, label %48
    i64 2, label %50
  ]

48:                                               ; preds = %8
  tail call void @glBegin(i32 noundef 0)
  %49 = load ptr, ptr %3, align 16
  br label %.loopexit.sink.split

50:                                               ; preds = %8
  tail call void @glBegin(i32 noundef 1)
  %51 = load ptr, ptr %3, align 16
  tail call void @glVertex2fv(ptr noundef nonnull %51)
  %52 = load ptr, ptr %3, align 16
  %53 = getelementptr inbounds i8, ptr %52, i64 8
  br label %.loopexit.sink.split

54:                                               ; preds = %8
  tail call void @glBegin(i32 noundef 2)
  %55 = load ptr, ptr %4, align 8
  %56 = load ptr, ptr %3, align 16
  %.not = icmp eq ptr %55, %56
  br i1 %.not, label %.loopexit, label %.lr.ph

.lr.ph:                                           ; preds = %54, %.lr.ph
  %57 = phi ptr [ %61, %.lr.ph ], [ %56, %54 ]
  %.07 = phi i64 [ %59, %.lr.ph ], [ 0, %54 ]
  %58 = getelementptr inbounds %"class.vcg::Point2", ptr %57, i64 %.07
  tail call void @glVertex2fv(ptr noundef nonnull %58)
  %59 = add nuw i64 %.07, 1
  %60 = load ptr, ptr %4, align 8
  %61 = load ptr, ptr %3, align 16
  %62 = ptrtoint ptr %60 to i64
  %63 = ptrtoint ptr %61 to i64
  %64 = sub i64 %62, %63
  %65 = ashr exact i64 %64, 3
  %66 = icmp ult i64 %59, %65
  br i1 %66, label %.lr.ph, label %.loopexit, !llvm.loop !61

.loopexit.sink.split:                             ; preds = %48, %50
  %.sink = phi ptr [ %53, %50 ], [ %49, %48 ]
  tail call void @glVertex2fv(ptr noundef nonnull %.sink)
  br label %.loopexit

.loopexit:                                        ; preds = %.lr.ph, %.loopexit.sink.split, %54
  tail call void @glEnd()
  tail call void @glDisable(i32 noundef 3057)
  tail call void @glPopAttrib()
  tail call void @glPopMatrix()
  tail call void @glMatrixMode(i32 noundef 5889)
  tail call void @glPopMatrix()
  tail call void @glMatrixMode(i32 noundef 5888)
  br label %67

67:                                               ; preds = %2, %.loopexit
  ret void
}